target datalayout = "e-m:e-p270:32:32-p271:32:32-p272:64:64-i64:64-i128:128-f80:128-n8:16:32:64-S128"
target triple = "x86_64-pc-linux-gnu"

%struct._GtkTreeIter = type { i32, ptr, ptr, ptr }

@last_model = internal global ptr null, align 8
@.str.34 = private unnamed_addr constant [5 x i8] c"None\00", align 1
@.str.35 = private unnamed_addr constant [7 x i8] c"Cancel\00", align 1
@.str.36 = private unnamed_addr constant [15 x i8] c"Suspend/Resume\00", align 1
@.str.37 = private unnamed_addr constant [8 x i8] c"Requeue\00", align 1
@.str.38 = private unnamed_addr constant [4 x i8] c"yes\00", align 1
@.str.39 = private unnamed_addr constant [3 x i8] c"no\00", align 1

; Function Attrs: nounwind uwtable
define dso_local ptr @create_model_job(i32 noundef %0) #0 {
  %2 = alloca i32, align 4
  %3 = alloca ptr, align 8
  %4 = alloca %struct._GtkTreeIter, align 8
  store i32 %0, ptr %2, align 4
  call void @llvm.lifetime.start.p0(i64 8, ptr %3) #11
  store ptr null, ptr %3, align 8
  call void @llvm.lifetime.start.p0(i64 32, ptr %4) #11
  store ptr null, ptr @last_model, align 8
  %5 = load i32, ptr %2, align 4
  switch i32 %5, label %24 [
    i32 2, label %6
    i32 15, label %16
    i32 63, label %16
    i32 64, label %16
    i32 56, label %16
  ]

6:                                                ; preds = %1
  %7 = call ptr (i32, ...) @gtk_list_store_new(i32 noundef 2, i64 noundef 64, i64 noundef 24)
  store ptr %7, ptr %3, align 8
  %8 = load ptr, ptr %3, align 8
  call void @gtk_list_store_append(ptr noundef %8, ptr noundef %4)
  %9 = load ptr, ptr %3, align 8
  call void (ptr, ptr, ...) @gtk_list_store_set(ptr noundef %9, ptr noundef %4, i32 noundef 1, i32 noundef 2, i32 noundef 0, ptr noundef @.str.34, i32 noundef -1)
  %10 = load ptr, ptr %3, align 8
  call void @gtk_list_store_append(ptr noundef %10, ptr noundef %4)
  %11 = load ptr, ptr %3, align 8
  call void (ptr, ptr, ...) @gtk_list_store_set(ptr noundef %11, ptr noundef %4, i32 noundef 1, i32 noundef 2, i32 noundef 0, ptr noundef @.str.35, i32 noundef -1)
  %12 = load ptr, ptr %3, align 8
  call void @gtk_list_store_append(ptr noundef %12, ptr noundef %4)
  %13 = load ptr, ptr %3, align 8
  call void (ptr, ptr, ...) @gtk_list_store_set(ptr noundef %13, ptr noundef %4, i32 noundef 1, i32 noundef 2, i32 noundef 0, ptr noundef @.str.36, i32 noundef -1)
  %14 = load ptr, ptr %3, align 8
  call void @gtk_list_store_append(ptr noundef %14, ptr noundef %4)
  %15 = load ptr, ptr %3, align 8
  call void (ptr, ptr, ...) @gtk_list_store_set(ptr noundef %15, ptr noundef %4, i32 noundef 1, i32 noundef 2, i32 noundef 0, ptr noundef @.str.37, i32 noundef -1)
  br label %25

16:                                               ; preds = %1, %1, %1, %1
  %17 = call ptr (i32, ...) @gtk_list_store_new(i32 noundef 2, i64 noundef 64, i64 noundef 24)
  store ptr %17, ptr %3, align 8
  %18 = load ptr, ptr %3, align 8
  call void @gtk_list_store_append(ptr noundef %18, ptr noundef %4)
  %19 = load ptr, ptr %3, align 8
  %20 = load i32, ptr %2, align 4
  call void (ptr, ptr, ...) @gtk_list_store_set(ptr noundef %19, ptr noundef %4, i32 noundef 0, ptr noundef @.str.38, i32 noundef 1, i32 noundef %20, i32 noundef -1)
  %21 = load ptr, ptr %3, align 8
  call void @gtk_list_store_append(ptr noundef %21, ptr noundef %4)
  %22 = load ptr, ptr %3, align 8
  %23 = load i32, ptr %2, align 4
  call void (ptr, ptr, ...) @gtk_list_store_set(ptr noundef %22, ptr noundef %4, i32 noundef 0, ptr noundef @.str.39, i32 noundef 1, i32 noundef %23, i32 noundef -1)
  br label %25

24:                                               ; preds = %1
  br label %25

25:                                               ; preds = %24, %16, %6
  %26 = load ptr, ptr %3, align 8
  call void @llvm.lifetime.end.p0(i64 32, ptr %4) #11
  call void @llvm.lifetime.end.p0(i64 8, ptr %3) #11
  ret ptr %26
}