; Function Attrs: nounwind uwtable
define dso_local noundef ptr @create_model_job(i32 noundef %0) #0 {
  %2 = alloca %struct._GtkTreeIter, align 8
  call void @llvm.lifetime.start.p0(i64 32, ptr nonnull %2) #16
  store ptr null, ptr @last_model, align 8
  switch i32 %0, label %7 [
    i32 2, label %3
    i32 15, label %5
    i32 63, label %5
    i32 64, label %5
    i32 56, label %5
  ]

3:                                                ; preds = %1
  %4 = tail call ptr (i32, ...) @gtk_list_store_new(i32 noundef 2, i64 noundef 64, i64 noundef 24) #16
  call void @gtk_list_store_append(ptr noundef %4, ptr noundef nonnull %2) #16
  call void (ptr, ptr, ...) @gtk_list_store_set(ptr noundef %4, ptr noundef nonnull %2, i32 noundef 1, i32 noundef 2, i32 noundef 0, ptr noundef nonnull @.str.34, i32 noundef -1) #16
  call void @gtk_list_store_append(ptr noundef %4, ptr noundef nonnull %2) #16
  call void (ptr, ptr, ...) @gtk_list_store_set(ptr noundef %4, ptr noundef nonnull %2, i32 noundef 1, i32 noundef 2, i32 noundef 0, ptr noundef nonnull @.str.35, i32 noundef -1) #16
  call void @gtk_list_store_append(ptr noundef %4, ptr noundef nonnull %2) #16
  call void (ptr, ptr, ...) @gtk_list_store_set(ptr noundef %4, ptr noundef nonnull %2, i32 noundef 1, i32 noundef 2, i32 noundef 0, ptr noundef nonnull @.str.36, i32 noundef -1) #16
  call void @gtk_list_store_append(ptr noundef %4, ptr noundef nonnull %2) #16
  call void (ptr, ptr, ...) @gtk_list_store_set(ptr noundef %4, ptr noundef nonnull %2, i32 noundef 1, i32 noundef 2, i32 noundef 0, ptr noundef nonnull @.str.37, i32 noundef -1) #16
  br label %7

5:                                                ; preds = %1, %1, %1, %1
  %6 = tail call ptr (i32, ...) @gtk_list_store_new(i32 noundef 2, i64 noundef 64, i64 noundef 24) #16
  call void @gtk_list_store_append(ptr noundef %6, ptr noundef nonnull %2) #16
  call void (ptr, ptr, ...) @gtk_list_store_set(ptr noundef %6, ptr noundef nonnull %2, i32 noundef 0, ptr noundef nonnull @.str.38, i32 noundef 1, i32 noundef %0, i32 noundef -1) #16
  call void @gtk_list_store_append(ptr noundef %6, ptr noundef nonnull %2) #16
  call void (ptr, ptr, ...) @gtk_list_store_set(ptr noundef %6, ptr noundef nonnull %2, i32 noundef 0, ptr noundef nonnull @.str.39, i32 noundef 1, i32 noundef %0, i32 noundef -1) #16
  br label %7

7:                                                ; preds = %1, %5, %3
  %.0 = phi ptr [ null, %1 ], [ %6, %5 ], [ %4, %3 ]
  call void @llvm.lifetime.end.p0(i64 32, ptr nonnull %2) #16
  ret ptr %.0
}